target datalayout = "e-m:e-p270:32:32-p271:32:32-p272:64:64-i64:64-i128:128-f80:128-n8:16:32:64-S128"
target triple = "x86_64-pc-linux-gnu"

%"class.icu_77::UnicodeString" = type { %"class.icu_77::Replaceable", %"union.icu_77::UnicodeString::StackBufferOrFields" }
%"class.icu_77::Replaceable" = type { %"class.icu_77::UObject" }
%"class.icu_77::UObject" = type { ptr }
%"union.icu_77::UnicodeString::StackBufferOrFields" = type { %struct.anon.0, [32 x i8] }
%struct.anon.0 = type { i16, i32, i32, ptr }
%"class.icu_77::VTimeZone" = type { %"class.icu_77::BasicTimeZone", ptr, ptr, %"class.icu_77::UnicodeString", double, %"class.icu_77::UnicodeString", %"class.icu_77::UnicodeString" }
%"class.icu_77::BasicTimeZone" = type { %"class.icu_77::TimeZone" }
%"class.icu_77::TimeZone" = type { %"class.icu_77::UObject", %"class.icu_77::UnicodeString" }

; Function Attrs: mustprogress uwtable
define noundef signext i8 @_ZNK6icu_779VTimeZone17getNextTransitionEdaRNS_18TimeZoneTransitionE(ptr noundef nonnull align 8 dereferenceable(288) %0, double noundef %1, i8 noundef signext %2, ptr noundef nonnull align 8 dereferenceable(32) %3) unnamed_addr #1 align 2 {
  %5 = alloca ptr, align 8
  %6 = alloca double, align 8
  %7 = alloca i8, align 1
  %8 = alloca ptr, align 8
  store ptr %0, ptr %5, align 8, !tbaa !29
  store double %1, ptr %6, align 8, !tbaa !77
  store i8 %2, ptr %7, align 1, !tbaa !28
  store ptr %3, ptr %8, align 8, !tbaa !90
  %9 = load ptr, ptr %5, align 8
  %10 = getelementptr inbounds nuw %"class.icu_77::VTimeZone", ptr %9, i32 0, i32 1
  %11 = load ptr, ptr %10, align 8, !tbaa !33
  %12 = load double, ptr %6, align 8, !tbaa !77
  %13 = load i8, ptr %7, align 1, !tbaa !28
  %14 = load ptr, ptr %8, align 8, !tbaa !90
  %15 = load ptr, ptr %11, align 8, !tbaa !31
  %16 = getelementptr inbounds ptr, ptr %15, i64 14
  %17 = load ptr, ptr %16, align 8
  %18 = call noundef signext i8 %17(ptr noundef nonnull align 8 dereferenceable(72) %11, double noundef %12, i8 noundef signext %13, ptr noundef nonnull align 8 dereferenceable(32) %14)
  ret i8 %18
}