; Function Attrs: mustprogress uwtable
define noundef signext i8 @_ZNK6icu_779VTimeZone17getNextTransitionEdaRNS_18TimeZoneTransitionE(ptr noundef nonnull readonly align 8 captures(none) dereferenceable(288) %0, double noundef %1, i8 noundef signext %2, ptr noundef nonnull align 8 dereferenceable(32) %3) unnamed_addr #2 align 2 {
  %5 = getelementptr inbounds nuw i8, ptr %0, i64 72
  %6 = load ptr, ptr %5, align 8, !tbaa !29
  %7 = load ptr, ptr %6, align 8, !tbaa !17
  %8 = getelementptr inbounds nuw i8, ptr %7, i64 112
  %9 = load ptr, ptr %8, align 8
  %10 = tail call noundef signext i8 %9(ptr noundef nonnull align 8 dereferenceable(72) %6, double noundef %1, i8 noundef signext %2, ptr noundef nonnull align 8 dereferenceable(32) %3)
  ret i8 %10
}